target datalayout = "e-m:e-p270:32:32-p271:32:32-p272:64:64-i64:64-i128:128-f80:128-n8:16:32:64-S128"
target triple = "x86_64-pc-linux-gnu"

%"class.nanogui::Color" = type { %"struct.nanogui::Array" }
%"struct.nanogui::Array" = type { [4 x float] }
%"class.std::__1::basic_string" = type { %"class.std::__1::__compressed_pair.4" }
%"class.std::__1::__compressed_pair.4" = type { %"struct.std::__1::__compressed_pair_elem.5" }
%"struct.std::__1::__compressed_pair_elem.5" = type { %"struct.std::__1::basic_string<char>::__rep" }
%"struct.std::__1::basic_string<char>::__rep" = type { %union.anon }
%union.anon = type { %"struct.std::__1::basic_string<char>::__long" }
%"struct.std::__1::basic_string<char>::__long" = type { %struct.anon.6, i64, ptr }
%struct.anon.6 = type { i64 }
%"struct.std::__1::atomic" = type { %"struct.std::__1::__atomic_base" }
%"struct.std::__1::__atomic_base" = type { %"struct.std::__1::__atomic_base.0" }
%"struct.std::__1::__atomic_base.0" = type { %"struct.std::__1::__cxx_atomic_impl" }
%"struct.std::__1::__cxx_atomic_impl" = type { %"struct.std::__1::__cxx_atomic_base_impl" }
%"struct.std::__1::__cxx_atomic_base_impl" = type { i32 }
%"struct.nanogui::Array.2" = type { [2 x i32] }
%"struct.std::__1::aligned_storage<24>::type" = type { [32 x i8] }
%"class.std::__1::function" = type { %"class.std::__1::__function::__value_func" }
%"class.std::__1::__function::__value_func" = type { %"struct.std::__1::aligned_storage<24>::type", ptr, [8 x i8] }
%"class.std::__1::shared_ptr.24" = type { ptr, ptr }
%"class.tev::ImageViewer" = type <{ %"class.nanogui::Screen", %"class.tev::SharedQueue", i8, i8, [6 x i8], ptr, ptr, ptr, ptr, ptr, i8, [7 x i8], ptr, ptr, ptr, ptr, ptr, ptr, ptr, ptr, %"class.std::__1::shared_ptr", %"class.std::__1::shared_ptr.24", %"class.std::__1::shared_ptr.24", %"class.std::__1::vector.25", ptr, %"class.std::__1::set", ptr, ptr, ptr, %"class.std::__1::chrono::time_point", %"class.std::__1::vector.40", %"class.std::__1::vector.40", ptr, ptr, %"class.std::__1::chrono::time_point", ptr, ptr, ptr, ptr, ptr, %"class.std::__1::basic_string", ptr, %"struct.nanogui::Array.2", i32, [4 x i8], i64, i64, i8, [7 x i8], ptr, i32, [4 x i8] }>
%"class.nanogui::Screen" = type { %"class.nanogui::Widget.base", ptr, ptr, [6 x ptr], i32, %"class.std::__1::vector", %"struct.nanogui::Array.2", float, i32, i32, %"struct.nanogui::Array.2", i8, ptr, double, i8, %"class.nanogui::Color", %"class.std::__1::basic_string", i8, i8, i8, i8, i8, i8, %"class.std::__1::function" }
%"class.nanogui::Widget.base" = type <{ %"class.nanogui::Object.base", [4 x i8], ptr, %"class.nanogui::ref", %"class.nanogui::ref.1", %"struct.nanogui::Array.2", %"struct.nanogui::Array.2", %"struct.nanogui::Array.2", %"class.std::__1::vector", i8, i8, i8, i8, [4 x i8], %"class.std::__1::basic_string", i32, float, i32 }>
%"class.nanogui::Object.base" = type <{ ptr, %"struct.std::__1::atomic" }>
%"class.nanogui::ref" = type { ptr }
%"class.nanogui::ref.1" = type { ptr }
%"class.std::__1::vector" = type { ptr, ptr, %"class.std::__1::__compressed_pair" }
%"class.std::__1::__compressed_pair" = type { %"struct.std::__1::__compressed_pair_elem" }
%"struct.std::__1::__compressed_pair_elem" = type { ptr }
%"class.tev::SharedQueue" = type { %"class.std::__1::deque", %"class.std::__1::mutex", %"class.std::__1::condition_variable" }
%"class.std::__1::deque" = type { %"struct.std::__1::__split_buffer", i64, %"class.std::__1::__compressed_pair.17" }
%"struct.std::__1::__split_buffer" = type { ptr, ptr, ptr, %"class.std::__1::__compressed_pair.11" }
%"class.std::__1::__compressed_pair.11" = type { %"struct.std::__1::__compressed_pair_elem.12" }
%"struct.std::__1::__compressed_pair_elem.12" = type { ptr }
%"class.std::__1::__compressed_pair.17" = type { %"struct.std::__1::__compressed_pair_elem.18" }
%"struct.std::__1::__compressed_pair_elem.18" = type { i64 }
%"class.std::__1::mutex" = type { %union.pthread_mutex_t }
%union.pthread_mutex_t = type { %struct.__pthread_mutex_s }
%struct.__pthread_mutex_s = type { i32, i32, i32, i32, i32, i16, i16, %struct.__pthread_internal_list }
%struct.__pthread_internal_list = type { ptr, ptr }
%"class.std::__1::condition_variable" = type { %union.pthread_cond_t }
%union.pthread_cond_t = type { %struct.__pthread_cond_s }
%struct.__pthread_cond_s = type { %union.__atomic_wide_counter, %union.__atomic_wide_counter, [2 x i32], [2 x i32], i32, i32, [2 x i32] }
%union.__atomic_wide_counter = type { i64 }
%"class.std::__1::shared_ptr" = type { ptr, ptr }
%"class.std::__1::vector.25" = type { ptr, ptr, %"class.std::__1::__compressed_pair.26" }
%"class.std::__1::__compressed_pair.26" = type { %"struct.std::__1::__compressed_pair_elem.27" }
%"struct.std::__1::__compressed_pair_elem.27" = type { ptr }
%"class.std::__1::set" = type { %"class.std::__1::__tree" }
%"class.std::__1::__tree" = type { ptr, %"class.std::__1::__compressed_pair.32", %"class.std::__1::__compressed_pair.38" }
%"class.std::__1::__compressed_pair.32" = type { %"struct.std::__1::__compressed_pair_elem.33" }
%"struct.std::__1::__compressed_pair_elem.33" = type { %"class.std::__1::__tree_end_node" }
%"class.std::__1::__tree_end_node" = type { ptr }
%"class.std::__1::__compressed_pair.38" = type { %"struct.std::__1::__compressed_pair_elem.18" }
%"class.std::__1::vector.40" = type { ptr, ptr, %"class.std::__1::__compressed_pair.41" }
%"class.std::__1::__compressed_pair.41" = type { %"struct.std::__1::__compressed_pair_elem.42" }
%"struct.std::__1::__compressed_pair_elem.42" = type { ptr }
%"class.std::__1::chrono::time_point" = type { %"class.std::__1::chrono::duration" }
%"class.std::__1::chrono::duration" = type { i64 }
%"class.std::__1::__shared_count" = type { ptr, i64 }

; Function Attrs: mustprogress nounwind uwtable
define linkonce_odr hidden noundef i64 @_ZNSt3__134__libcpp_atomic_refcount_incrementB8ne190000IlEET_RS1_(ptr noundef nonnull align 8 dereferenceable(8) %0) #1 comdat {
  %2 = alloca ptr, align 8
  %3 = alloca i64, align 8
  %4 = alloca i64, align 8
  store ptr %0, ptr %2, align 8
  %5 = load ptr, ptr %2, align 8
  store i64 1, ptr %3, align 8
  %6 = load i64, ptr %3, align 8
  %7 = atomicrmw add ptr %5, i64 %6 monotonic, align 8
  %8 = add i64 %7, %6
  store i64 %8, ptr %4, align 8
  %9 = load i64, ptr %4, align 8
  ret i64 %9
}

; Function Attrs: mustprogress nounwind uwtable
define linkonce_odr hidden void @_ZNSt3__114__shared_count12__add_sharedB8ne190000Ev(ptr noundef nonnull align 8 dereferenceable(16) %0) #1 comdat align 2 {
  %2 = alloca ptr, align 8
  store ptr %0, ptr %2, align 8
  %3 = load ptr, ptr %2, align 8
  %4 = getelementptr inbounds %"class.std::__1::__shared_count", ptr %3, i32 0, i32 1
  %5 = call noundef i64 @_ZNSt3__134__libcpp_atomic_refcount_incrementB8ne190000IlEET_RS1_(ptr noundef nonnull align 8 dereferenceable(8) %4) #11
  ret void
}

; Function Attrs: mustprogress nounwind uwtable
define linkonce_odr hidden void @_ZNSt3__119__shared_weak_count12__add_sharedB8ne190000Ev(ptr noundef nonnull align 8 dereferenceable(24) %0) #1 comdat align 2 {
  %2 = alloca ptr, align 8
  store ptr %0, ptr %2, align 8
  %3 = load ptr, ptr %2, align 8
  call void @_ZNSt3__114__shared_count12__add_sharedB8ne190000Ev(ptr noundef nonnull align 8 dereferenceable(16) %3) #11
  ret void
}

; Function Attrs: mustprogress nounwind uwtable
define linkonce_odr hidden void @_ZNSt3__110shared_ptrIN3tev5ImageEEC2B8ne190000EDn(ptr noundef nonnull align 8 dereferenceable(16) %0, ptr %1) unnamed_addr #1 comdat align 2 {
  %3 = alloca ptr, align 8
  %4 = alloca ptr, align 8
  store ptr %0, ptr %3, align 8
  store ptr %1, ptr %4, align 8
  %5 = load ptr, ptr %3, align 8
  %6 = getelementptr inbounds %"class.std::__1::shared_ptr.24", ptr %5, i32 0, i32 0
  store ptr null, ptr %6, align 8
  %7 = getelementptr inbounds %"class.std::__1::shared_ptr.24", ptr %5, i32 0, i32 1
  store ptr null, ptr %7, align 8
  ret void
}

; Function Attrs: mustprogress nounwind uwtable
define linkonce_odr hidden void @_ZNSt3__110shared_ptrIN3tev5ImageEEC2B8ne190000ERKS3_(ptr noundef nonnull align 8 dereferenceable(16) %0, ptr noundef nonnull align 8 dereferenceable(16) %1) unnamed_addr #1 comdat align 2 {
  %3 = alloca ptr, align 8
  %4 = alloca ptr, align 8
  store ptr %0, ptr %3, align 8
  store ptr %1, ptr %4, align 8
  %5 = load ptr, ptr %3, align 8
  %6 = getelementptr inbounds %"class.std::__1::shared_ptr.24", ptr %5, i32 0, i32 0
  %7 = load ptr, ptr %4, align 8
  %8 = getelementptr inbounds %"class.std::__1::shared_ptr.24", ptr %7, i32 0, i32 0
  %9 = load ptr, ptr %8, align 8
  store ptr %9, ptr %6, align 8
  %10 = getelementptr inbounds %"class.std::__1::shared_ptr.24", ptr %5, i32 0, i32 1
  %11 = load ptr, ptr %4, align 8
  %12 = getelementptr inbounds %"class.std::__1::shared_ptr.24", ptr %11, i32 0, i32 1
  %13 = load ptr, ptr %12, align 8
  store ptr %13, ptr %10, align 8
  %14 = getelementptr inbounds %"class.std::__1::shared_ptr.24", ptr %5, i32 0, i32 1
  %15 = load ptr, ptr %14, align 8
  %16 = icmp ne ptr %15, null
  br i1 %16, label %17, label %20

17:                                               ; preds = %2
  %18 = getelementptr inbounds %"class.std::__1::shared_ptr.24", ptr %5, i32 0, i32 1
  %19 = load ptr, ptr %18, align 8
  call void @_ZNSt3__119__shared_weak_count12__add_sharedB8ne190000Ev(ptr noundef nonnull align 8 dereferenceable(24) %19) #11
  br label %20

20:                                               ; preds = %17, %2
  ret void
}

; Function Attrs: mustprogress nounwind uwtable
define linkonce_odr hidden noundef nonnull align 8 dereferenceable(16) ptr @_ZNSt3__16vectorINS_10shared_ptrIN3tev5ImageEEENS_9allocatorIS4_EEEixB8ne190000Em(ptr noundef nonnull align 8 dereferenceable(24) %0, i64 noundef %1) #1 comdat align 2 {
  %3 = alloca ptr, align 8
  %4 = alloca i64, align 8
  store ptr %0, ptr %3, align 8
  store i64 %1, ptr %4, align 8
  %5 = load ptr, ptr %3, align 8
  %6 = getelementptr inbounds %"class.std::__1::vector.25", ptr %5, i32 0, i32 0
  %7 = load ptr, ptr %6, align 8
  %8 = load i64, ptr %4, align 8
  %9 = getelementptr inbounds %"class.std::__1::shared_ptr.24", ptr %7, i64 %8
  ret ptr %9
}

; Function Attrs: mustprogress uwtable
define dso_local void @_ZN3tev11ImageViewer11imageByNameERKNSt3__112basic_stringIcNS1_11char_traitsIcEENS1_9allocatorIcEEEE(ptr dead_on_unwind noalias writable sret(%"class.std::__1::shared_ptr.24") align 8 %0, ptr noundef nonnull align 16 dereferenceable(972) %1, ptr noundef nonnull align 8 dereferenceable(24) %2) #4 align 2 {
  %4 = alloca ptr, align 8
  %5 = alloca ptr, align 8
  %6 = alloca ptr, align 8
  %7 = alloca i32, align 4
  store ptr %0, ptr %4, align 8
  store ptr %1, ptr %5, align 8
  store ptr %2, ptr %6, align 8
  %8 = load ptr, ptr %5, align 8
  %9 = load ptr, ptr %6, align 8
  %10 = call noundef i32 @_ZNK3tev11ImageViewer7imageIdERKNSt3__112basic_stringIcNS1_11char_traitsIcEENS1_9allocatorIcEEEE(ptr noundef nonnull align 16 dereferenceable(972) %8, ptr noundef nonnull align 8 dereferenceable(24) %9)
  store i32 %10, ptr %7, align 4
  %11 = load i32, ptr %7, align 4
  %12 = icmp ne i32 %11, -1
  br i1 %12, label %13, label %18

13:                                               ; preds = %3
  %14 = getelementptr inbounds %"class.tev::ImageViewer", ptr %8, i32 0, i32 23
  %15 = load i32, ptr %7, align 4
  %16 = sext i32 %15 to i64
  %17 = call noundef nonnull align 8 dereferenceable(16) ptr @_ZNSt3__16vectorINS_10shared_ptrIN3tev5ImageEEENS_9allocatorIS4_EEEixB8ne190000Em(ptr noundef nonnull align 8 dereferenceable(24) %14, i64 noundef %16) #11
  call void @_ZNSt3__110shared_ptrIN3tev5ImageEEC2B8ne190000ERKS3_(ptr noundef nonnull align 8 dereferenceable(16) %0, ptr noundef nonnull align 8 dereferenceable(16) %17) #11
  br label %19

18:                                               ; preds = %3
  call void @_ZNSt3__110shared_ptrIN3tev5ImageEEC2B8ne190000EDn(ptr noundef nonnull align 8 dereferenceable(16) %0, ptr null) #11
  br label %19

19:                                               ; preds = %18, %13
  ret void
}