; Function Attrs: mustprogress nofree nounwind willreturn memory(readwrite, inaccessiblemem: none) uwtable
define dso_local void @_ZN3tev11ImageViewer11imageByNameERKNSt3__112basic_stringIcNS1_11char_traitsIcEENS1_9allocatorIcEEEE(ptr dead_on_unwind noalias nocapture writable writeonly sret(%"class.std::__1::shared_ptr.24") align 8 %0, ptr nocapture noundef nonnull readonly align 16 dereferenceable(972) %1, ptr nocapture noundef nonnull readonly align 8 dereferenceable(24) %2) local_unnamed_addr #15 align 2 {
  %4 = tail call noundef i32 @_ZNK3tev11ImageViewer7imageIdERKNSt3__112basic_stringIcNS1_11char_traitsIcEENS1_9allocatorIcEEEE(ptr noundef nonnull align 16 dereferenceable(972) %1, ptr noundef nonnull align 8 dereferenceable(24) %2)
  %.not = icmp eq i32 %4, -1
  br i1 %.not, label %17, label %5

5:                                                ; preds = %3
  %6 = getelementptr inbounds i8, ptr %1, i64 688
  %7 = sext i32 %4 to i64
  %8 = load ptr, ptr %6, align 16
  %9 = getelementptr inbounds %"class.std::__1::shared_ptr.24", ptr %8, i64 %7
  %10 = load ptr, ptr %9, align 8
  store ptr %10, ptr %0, align 8
  %11 = getelementptr inbounds i8, ptr %0, i64 8
  %12 = getelementptr inbounds i8, ptr %9, i64 8
  %13 = load ptr, ptr %12, align 8
  store ptr %13, ptr %11, align 8
  %.not.i = icmp eq ptr %13, null
  br i1 %.not.i, label %_ZNSt3__110shared_ptrIN3tev5ImageEEC2B8ne190000ERKS3_.exit, label %14

14:                                               ; preds = %5
  %15 = getelementptr inbounds i8, ptr %13, i64 8
  %16 = atomicrmw add ptr %15, i64 1 monotonic, align 8
  br label %_ZNSt3__110shared_ptrIN3tev5ImageEEC2B8ne190000ERKS3_.exit

17:                                               ; preds = %3
  tail call void @llvm.memset.p0.i64(ptr noundef nonnull align 8 dereferenceable(16) %0, i8 0, i64 16, i1 false)
  br label %_ZNSt3__110shared_ptrIN3tev5ImageEEC2B8ne190000ERKS3_.exit

_ZNSt3__110shared_ptrIN3tev5ImageEEC2B8ne190000ERKS3_.exit: ; preds = %14, %5, %17
  ret void
}